; ModuleID = 'bench/linux/original/gss_krb5_seal.ll'
source_filename = "bench/linux/original/gss_krb5_seal.ll"
target datalayout = "e-m:e-p270:32:32-p271:32:32-p272:64:64-i64:64-i128:128-f80:128-n8:16:32:64-S128"
target triple = "x86_64-unknown-linux-gnu"

%struct.xdr_netobj = type { i32, ptr }

; Function Attrs: fn_ret_thunk_extern nounwind null_pointer_is_valid
define dso_local i32 @gss_krb5_get_mic_v2(ptr noundef %0, ptr noundef %1, ptr nocapture noundef %2) local_unnamed_addr #0 align 16 {
  %4 = alloca %struct.xdr_netobj, align 8
  %5 = load i32, ptr %0, align 8
  %6 = icmp eq i32 %5, 0
  %7 = select i1 %6, i64 72, i64 80
  %8 = getelementptr inbounds i8, ptr %0, i64 %7
  %9 = load ptr, ptr %8, align 8
  call void @llvm.lifetime.start.p0(i64 16, ptr nonnull %4) #4
  store i64 0, ptr %4, align 8, !annotation !5
  %10 = getelementptr inbounds i8, ptr %0, i64 16
  %11 = load ptr, ptr %10, align 8
  %12 = getelementptr inbounds i8, ptr %11, i64 44
  %13 = load i32, ptr %12, align 4
  store i32 %13, ptr %4, align 8
  %14 = getelementptr inbounds i8, ptr %4, i64 8
  %15 = getelementptr inbounds i8, ptr %0, i64 8
  %16 = load i32, ptr %15, align 8
  %17 = trunc i32 %16 to i8
  %18 = and i8 %17, 5
  %19 = xor i8 %18, 1
  %20 = getelementptr inbounds i8, ptr %2, i64 8
  %21 = load ptr, ptr %20, align 8
  %22 = getelementptr i8, ptr %21, i64 2
  store i16 1028, ptr %21, align 2
  %23 = getelementptr i8, ptr %21, i64 3
  store i8 %19, ptr %22, align 1
  %24 = getelementptr i8, ptr %21, i64 4
  store i8 -1, ptr %23, align 1
  %25 = getelementptr i8, ptr %21, i64 6
  store i16 -1, ptr %24, align 2
  store i16 -1, ptr %25, align 2
  %26 = load ptr, ptr %10, align 8
  %27 = getelementptr inbounds i8, ptr %26, i64 44
  %28 = load i32, ptr %27, align 4
  %29 = add i32 %28, 16
  store i32 %29, ptr %2, align 8
  %30 = getelementptr inbounds i8, ptr %0, i64 176
  %31 = tail call i64 asm sideeffect ".pushsection .smp_locks,\22a\22\0A.balign 4\0A.long 671f - .\0A.popsection\0A671:\0A\09lock; xaddq ${0:q}, $1\0A", "=r,=*m,0,*m,~{memory},~{cc},~{dirflag},~{fpsr},~{flags}"(ptr elementtype(i64) %30, i64 1, ptr elementtype(i64) %30) #4, !srcloc !6
  %32 = tail call i64 @llvm.bswap.i64(i64 %31)
  %33 = getelementptr i8, ptr %21, i64 8
  store i64 %32, ptr %33, align 1
  %34 = getelementptr i8, ptr %21, i64 16
  store ptr %34, ptr %14, align 8
  %35 = call i32 @gss_krb5_checksum(ptr noundef %9, ptr noundef %21, i32 noundef 16, ptr noundef %1, i32 noundef 0, ptr noundef nonnull %4) #4
  %36 = icmp eq i32 %35, 0
  br i1 %36, label %37, label %43

37:                                               ; preds = %3
  %38 = call i64 @ktime_get_real_seconds() #4
  %39 = getelementptr inbounds i8, ptr %0, i64 184
  %40 = load i64, ptr %39, align 8
  %41 = icmp slt i64 %40, %38
  %42 = select i1 %41, i32 786432, i32 0
  br label %43

43:                                               ; preds = %37, %3
  %44 = phi i32 [ %42, %37 ], [ 851968, %3 ]
  call void @llvm.lifetime.end.p0(i64 16, ptr nonnull %4) #4
  ret i32 %44
}

; Function Attrs: mustprogress nocallback nofree nosync nounwind willreturn memory(argmem: readwrite)
declare void @llvm.lifetime.start.p0(i64 immarg, ptr nocapture) #1

; Function Attrs: mustprogress nocallback nofree nosync nounwind speculatable willreturn memory(none)
declare i64 @llvm.bswap.i64(i64) #2

; Function Attrs: null_pointer_is_valid
declare dso_local i32 @gss_krb5_checksum(ptr noundef, ptr noundef, i32 noundef, ptr noundef, i32 noundef, ptr noundef) local_unnamed_addr #3

; Function Attrs: null_pointer_is_valid
declare dso_local i64 @ktime_get_real_seconds() local_unnamed_addr #3

; Function Attrs: mustprogress nocallback nofree nosync nounwind willreturn memory(argmem: readwrite)
declare void @llvm.lifetime.end.p0(i64 immarg, ptr nocapture) #1


!llvm.module.flags = !{!0, !1, !2, !3, !4}

!0 = !{i32 1, !"wchar_size", i32 2}
!1 = !{i32 8, !"cf-protection-branch", i32 1}
!2 = !{i32 4, !"function_return_thunk_extern", i32 1}
!3 = !{i32 4, !"indirect_branch_cs_prefix", i32 1}
!4 = !{i32 4, !"SkipRaxSetup", i32 1}
!5 = !{!"auto-init"}
!6 = !{i64 2148726650, i64 2148726689, i64 2148726710, i64 2148726747, i64 2148726770, i64 2148726779}
